; Function Attrs: inlinehint nofree norecurse nosync nounwind memory(read, argmem: readwrite, inaccessiblemem: none) uwtable
define internal fastcc i32 @rev_fetch(ptr noundef nonnull captures(none) %0) unnamed_addr #5 {
  %2 = getelementptr inbounds nuw i8, ptr %0, i64 16
  %3 = load i32, ptr %2, align 8, !tbaa !50
  %4 = icmp ult i32 %3, 32
  br i1 %4, label %5, label %._crit_edge

._crit_edge:                                      ; preds = %1
  %.phi.trans.insert = getelementptr inbounds nuw i8, ptr %0, i64 8
  %.pre = load i64, ptr %.phi.trans.insert, align 8, !tbaa !47
  br label %136

5:                                                ; preds = %1
  %6 = getelementptr inbounds nuw i8, ptr %0, i64 20
  %7 = load i32, ptr %6, align 4, !tbaa !85
  %8 = icmp sgt i32 %7, 3
  br i1 %8, label %9, label %14

9:                                                ; preds = %5
  %10 = load ptr, ptr %0, align 8, !tbaa !86
  %11 = getelementptr inbounds i8, ptr %10, i64 -3
  %.val.i = load i32, ptr %11, align 4, !tbaa !51
  %12 = getelementptr inbounds i8, ptr %10, i64 -4
  store ptr %12, ptr %0, align 8, !tbaa !86
  %13 = add nsw i32 %7, -4
  store i32 %13, ptr %6, align 4, !tbaa !85
  br label %rev_read.exit

14:                                               ; preds = %5
  %15 = icmp sgt i32 %7, 0
  br i1 %15, label %.preheader.i, label %rev_read.exit

.preheader.i:                                     ; preds = %14
  %.promoted.i = load ptr, ptr %0, align 8, !tbaa !86
  br label %16

16:                                               ; preds = %16, %.preheader.i
  %17 = phi ptr [ %.promoted.i, %.preheader.i ], [ %19, %16 ]
  %.147.i = phi i32 [ 0, %.preheader.i ], [ %23, %16 ]
  %.04446.i = phi i32 [ 24, %.preheader.i ], [ %25, %16 ]
  %18 = phi i32 [ %7, %.preheader.i ], [ %24, %16 ]
  %19 = getelementptr inbounds i8, ptr %17, i64 -1
  store ptr %19, ptr %0, align 8, !tbaa !86
  %20 = load i8, ptr %17, align 1, !tbaa !44
  %21 = zext i8 %20 to i32
  %22 = shl i32 %21, %.04446.i
  %23 = or i32 %22, %.147.i
  %24 = add nsw i32 %18, -1
  store i32 %24, ptr %6, align 4, !tbaa !85
  %25 = add nsw i32 %.04446.i, -8
  %26 = icmp samesign ugt i32 %18, 1
  br i1 %26, label %16, label %rev_read.exit, !llvm.loop !89

rev_read.exit:                                    ; preds = %16, %9, %14
  %27 = phi i32 [ %13, %9 ], [ %7, %14 ], [ 0, %16 ]
  %.0.i = phi i32 [ %.val.i, %9 ], [ 0, %14 ], [ %23, %16 ]
  %28 = lshr i32 %.0.i, 24
  %29 = getelementptr inbounds nuw i8, ptr %0, i64 24
  %30 = load i32, ptr %29, align 8, !tbaa !87
  %31 = icmp ne i32 %30, 0
  %32 = and i32 %.0.i, 2130706432
  %33 = icmp eq i32 %32, 2130706432
  %34 = select i1 %31, i1 %33, i1 false
  %35 = select i1 %34, i32 7, i32 8
  %36 = icmp ugt i32 %.0.i, -1879048193
  %37 = lshr i32 %.0.i, 16
  %38 = and i32 %37, 255
  %39 = shl nuw nsw i32 %38, %35
  %40 = or i32 %39, %28
  %41 = and i32 %.0.i, 8323072
  %42 = icmp eq i32 %41, 8323072
  %43 = and i1 %36, %42
  %44 = select i1 %43, i32 7, i32 8
  %45 = add nuw nsw i32 %35, %44
  %46 = icmp samesign ugt i32 %38, 143
  %47 = lshr i32 %.0.i, 8
  %48 = and i32 %47, 255
  %49 = shl nuw nsw i32 %48, %45
  %50 = or i32 %40, %49
  %51 = and i32 %.0.i, 32512
  %52 = icmp eq i32 %51, 32512
  %53 = select i1 %46, i1 %52, i1 false
  %54 = select i1 %53, i32 7, i32 8
  %55 = add nuw nsw i32 %45, %54
  %56 = icmp samesign ugt i32 %48, 143
  %57 = and i32 %.0.i, 255
  %58 = shl nuw i32 %57, %55
  %59 = or i32 %50, %58
  %60 = and i32 %.0.i, 127
  %61 = icmp eq i32 %60, 127
  %62 = select i1 %56, i1 %61, i1 false
  %63 = select i1 %62, i32 7, i32 8
  %64 = icmp samesign ugt i32 %57, 143
  %65 = zext i1 %64 to i32
  %66 = zext i32 %59 to i64
  %67 = zext nneg i32 %3 to i64
  %68 = shl nuw nsw i64 %66, %67
  %69 = getelementptr inbounds nuw i8, ptr %0, i64 8
  %70 = load i64, ptr %69, align 8, !tbaa !47
  %71 = or i64 %68, %70
  store i64 %71, ptr %69, align 8, !tbaa !47
  %72 = add nuw nsw i32 %63, %3
  %73 = add nuw nsw i32 %72, %55
  store i32 %73, ptr %2, align 8, !tbaa !50
  store i32 %65, ptr %29, align 8, !tbaa !87
  %74 = icmp samesign ult i32 %73, 32
  br i1 %74, label %75, label %136

75:                                               ; preds = %rev_read.exit
  %76 = icmp sgt i32 %27, 3
  br i1 %76, label %77, label %82

77:                                               ; preds = %75
  %78 = load ptr, ptr %0, align 8, !tbaa !86
  %79 = getelementptr inbounds i8, ptr %78, i64 -3
  %.val.i11 = load i32, ptr %79, align 4, !tbaa !51
  %80 = getelementptr inbounds i8, ptr %78, i64 -4
  store ptr %80, ptr %0, align 8, !tbaa !86
  %81 = add nsw i32 %27, -4
  store i32 %81, ptr %6, align 4, !tbaa !85
  br label %rev_read.exit12

82:                                               ; preds = %75
  %83 = icmp sgt i32 %27, 0
  br i1 %83, label %.preheader.i7, label %rev_read.exit12

.preheader.i7:                                    ; preds = %82
  %.promoted.i8 = load ptr, ptr %0, align 8, !tbaa !86
  br label %84

84:                                               ; preds = %84, %.preheader.i7
  %85 = phi ptr [ %.promoted.i8, %.preheader.i7 ], [ %87, %84 ]
  %.147.i9 = phi i32 [ 0, %.preheader.i7 ], [ %91, %84 ]
  %.04446.i10 = phi i32 [ 24, %.preheader.i7 ], [ %93, %84 ]
  %86 = phi i32 [ %27, %.preheader.i7 ], [ %92, %84 ]
  %87 = getelementptr inbounds i8, ptr %85, i64 -1
  store ptr %87, ptr %0, align 8, !tbaa !86
  %88 = load i8, ptr %85, align 1, !tbaa !44
  %89 = zext i8 %88 to i32
  %90 = shl i32 %89, %.04446.i10
  %91 = or i32 %90, %.147.i9
  %92 = add nsw i32 %86, -1
  store i32 %92, ptr %6, align 4, !tbaa !85
  %93 = add nsw i32 %.04446.i10, -8
  %94 = icmp samesign ugt i32 %86, 1
  br i1 %94, label %84, label %rev_read.exit12, !llvm.loop !89

rev_read.exit12:                                  ; preds = %84, %77, %82
  %.0.i6 = phi i32 [ %.val.i11, %77 ], [ 0, %82 ], [ %91, %84 ]
  %95 = lshr i32 %.0.i6, 24
  %96 = and i32 %.0.i6, 2130706432
  %97 = icmp eq i32 %96, 2130706432
  %98 = select i1 %64, i1 %97, i1 false
  %99 = select i1 %98, i32 7, i32 8
  %100 = icmp ugt i32 %.0.i6, -1879048193
  %101 = lshr i32 %.0.i6, 16
  %102 = and i32 %101, 255
  %103 = shl nuw nsw i32 %102, %99
  %104 = or i32 %103, %95
  %105 = and i32 %.0.i6, 8323072
  %106 = icmp eq i32 %105, 8323072
  %107 = and i1 %100, %106
  %108 = select i1 %107, i32 7, i32 8
  %109 = add nuw nsw i32 %99, %108
  %110 = icmp samesign ugt i32 %102, 143
  %111 = lshr i32 %.0.i6, 8
  %112 = and i32 %111, 255
  %113 = shl nuw nsw i32 %112, %109
  %114 = or i32 %104, %113
  %115 = and i32 %.0.i6, 32512
  %116 = icmp eq i32 %115, 32512
  %117 = select i1 %110, i1 %116, i1 false
  %118 = select i1 %117, i32 7, i32 8
  %119 = add nuw nsw i32 %109, %118
  %120 = icmp samesign ugt i32 %112, 143
  %121 = and i32 %.0.i6, 255
  %122 = shl nuw i32 %121, %119
  %123 = or i32 %114, %122
  %124 = and i32 %.0.i6, 127
  %125 = icmp eq i32 %124, 127
  %126 = select i1 %120, i1 %125, i1 false
  %127 = select i1 %126, i32 7, i32 8
  %128 = icmp samesign ugt i32 %121, 143
  %129 = zext i1 %128 to i32
  %130 = zext i32 %123 to i64
  %131 = zext nneg i32 %73 to i64
  %132 = shl nuw nsw i64 %130, %131
  %133 = or i64 %132, %71
  store i64 %133, ptr %69, align 8, !tbaa !47
  %134 = add nuw nsw i32 %127, %73
  %135 = add nuw nsw i32 %134, %119
  store i32 %135, ptr %2, align 8, !tbaa !50
  store i32 %129, ptr %29, align 8, !tbaa !87
  br label %136

136:                                              ; preds = %._crit_edge, %rev_read.exit, %rev_read.exit12
  %137 = phi i64 [ %.pre, %._crit_edge ], [ %71, %rev_read.exit ], [ %133, %rev_read.exit12 ]
  %138 = trunc i64 %137 to i32
  ret i32 %138
}